; Function Attrs: mustprogress nofree norecurse nosync nounwind memory(argmem: readwrite) uwtable
define void @_ZN5boost4urls6detail8url_impl10apply_portENS_4core17basic_string_viewIcEEt(ptr nocapture noundef nonnull align 8 dereferenceable(171) %0, ptr nocapture readnone %1, i64 %2, i16 noundef zeroext %3) local_unnamed_addr #3 align 2 {
  %5 = getelementptr inbounds nuw i8, ptr %0, i64 160
  store i16 %3, ptr %5, align 8, !tbaa !22
  %6 = getelementptr inbounds nuw i8, ptr %0, i64 8
  %7 = getelementptr inbounds i8, ptr %0, i64 40
  %8 = load i64, ptr %7, align 8, !tbaa !13
  %9 = getelementptr inbounds i8, ptr %0, i64 32
  %10 = load i64, ptr %9, align 8, !tbaa !13
  %.neg.i = add i64 %2, 1
  %11 = sub i64 %.neg.i, %8
  %12 = add i64 %11, %10
  br label %13

13:                                               ; preds = %13, %4
  %indvars.iv.i = phi i64 [ 3, %4 ], [ %indvars.iv.next.i, %13 ]
  %indvars.iv.next.i = add nuw nsw i64 %indvars.iv.i, 1
  %14 = getelementptr inbounds [8 x i64], ptr %6, i64 0, i64 %indvars.iv.next.i
  %15 = load i64, ptr %14, align 8, !tbaa !13
  %16 = add i64 %12, %15
  store i64 %16, ptr %14, align 8, !tbaa !13
  %exitcond.not.i = icmp eq i64 %indvars.iv.next.i, 7
  br i1 %exitcond.not.i, label %_ZN5boost4urls6detail8url_impl8set_sizeEim.exit, label %13, !llvm.loop !14

_ZN5boost4urls6detail8url_impl8set_sizeEim.exit:  ; preds = %13
  ret void
}